; ModuleID = '13/1390.c'
source_filename = "13/1390.c"
target datalayout = "e-m:e-p270:32:32-p271:32:32-p272:64:64-i64:64-f80:128-n8:16:32:64-S128"
target triple = "x86_64-pc-linux-gnu"

@.str = private unnamed_addr constant [3 x i8] c"%d\00", align 1
@.str.1 = private unnamed_addr constant [4 x i8] c" %d\00", align 1

; Function Attrs: noinline nounwind uwtable
define dso_local i32 @main(i32 %0, i8** %1) #0 {
  %3 = alloca i32, align 4
  %4 = alloca i32, align 4
  %5 = alloca i8**, align 8
  %6 = alloca i32, align 4
  %7 = alloca [101 x i32], align 16
  %8 = alloca i32, align 4
  %9 = alloca i32, align 4
  store i32 0, i32* %3, align 4
  store i32 %0, i32* %4, align 4
  store i8** %1, i8*** %5, align 8
  %10 = call i32 (i8*, ...) @__isoc99_scanf(i8* getelementptr inbounds ([3 x i8], [3 x i8]* @.str, i64 0, i64 0), i32* %6)
  store i32 0, i32* %8, align 4
  br label %11

11:                                               ; preds = %18, %2
  %12 = load i32, i32* %8, align 4
  %13 = icmp slt i32 %12, 101
  br i1 %13, label %14, label %21

14:                                               ; preds = %11
  %15 = load i32, i32* %8, align 4
  %16 = sext i32 %15 to i64
  %17 = getelementptr inbounds [101 x i32], [101 x i32]* %7, i64 0, i64 %16
  store i32 0, i32* %17, align 4
  br label %18

18:                                               ; preds = %14
  %19 = load i32, i32* %8, align 4
  %20 = add nsw i32 %19, 1
  store i32 %20, i32* %8, align 4
  br label %11

21:                                               ; preds = %11
  %22 = call i32 (i8*, ...) @__isoc99_scanf(i8* getelementptr inbounds ([3 x i8], [3 x i8]* @.str, i64 0, i64 0), i32* %9)
  %23 = load i32, i32* %9, align 4
  %24 = sext i32 %23 to i64
  %25 = getelementptr inbounds [101 x i32], [101 x i32]* %7, i64 0, i64 %24
  %26 = load i32, i32* %25, align 4
  %27 = add nsw i32 %26, 1
  store i32 %27, i32* %25, align 4
  %28 = load i32, i32* %9, align 4
  %29 = call i32 (i8*, ...) @printf(i8* getelementptr inbounds ([3 x i8], [3 x i8]* @.str, i64 0, i64 0), i32 %28)
  store i32 0, i32* %8, align 4
  br label %30

30:                                               ; preds = %51, %21
  %31 = load i32, i32* %8, align 4
  %32 = load i32, i32* %6, align 4
  %33 = sub nsw i32 %32, 1
  %34 = icmp slt i32 %31, %33
  br i1 %34, label %35, label %54

35:                                               ; preds = %30
  %36 = call i32 (i8*, ...) @__isoc99_scanf(i8* getelementptr inbounds ([3 x i8], [3 x i8]* @.str, i64 0, i64 0), i32* %9)
  %37 = load i32, i32* %9, align 4
  %38 = sext i32 %37 to i64
  %39 = getelementptr inbounds [101 x i32], [101 x i32]* %7, i64 0, i64 %38
  %40 = load i32, i32* %39, align 4
  %41 = icmp ne i32 %40, 0
  br i1 %41, label %45, label %42

42:                                               ; preds = %35
  %43 = load i32, i32* %9, align 4
  %44 = call i32 (i8*, ...) @printf(i8* getelementptr inbounds ([4 x i8], [4 x i8]* @.str.1, i64 0, i64 0), i32 %43)
  br label %45

45:                                               ; preds = %42, %35
  %46 = load i32, i32* %9, align 4
  %47 = sext i32 %46 to i64
  %48 = getelementptr inbounds [101 x i32], [101 x i32]* %7, i64 0, i64 %47
  %49 = load i32, i32* %48, align 4
  %50 = add nsw i32 %49, 1
  store i32 %50, i32* %48, align 4
  br label %51

51:                                               ; preds = %45
  %52 = load i32, i32* %8, align 4
  %53 = add nsw i32 %52, 1
  store i32 %53, i32* %8, align 4
  br label %30

54:                                               ; preds = %30
  ret i32 0
}

declare dso_local i32 @__isoc99_scanf(i8*, ...) #1

declare dso_local i32 @printf(i8*, ...) #1


!llvm.module.flags = !{!0}
!llvm.ident = !{!1}

!0 = !{i32 1, !"wchar_size", i32 4}
!1 = !{!"clang version 10.0.0-4ubuntu1 "}
