; ModuleID = 'source-C-CXX/12/1390.c'
source_filename = "source-C-CXX/12/1390.c"
target datalayout = "e-m:e-p270:32:32-p271:32:32-p272:64:64-i64:64-f80:128-n8:16:32:64-S128"
target triple = "x86_64-pc-linux-gnu"

@.str = private unnamed_addr constant [3 x i8] c"%d\00", align 1
@.str.1 = private unnamed_addr constant [4 x i8] c" %d\00", align 1

; Function Attrs: nofree nounwind sspstrong uwtable
define dso_local i32 @main(i32 %0, i8** nocapture readnone %1) local_unnamed_addr #0 {
  %3 = alloca i32, align 4
  %4 = alloca [101 x i32], align 16
  %5 = bitcast [101 x i32]* %4 to i8*
  %6 = alloca i32, align 4
  %7 = bitcast i32* %3 to i8*
  call void @llvm.lifetime.start.p0i8(i64 4, i8* nonnull %7) #4
  call void @llvm.lifetime.start.p0i8(i64 404, i8* nonnull %5) #4
  %8 = bitcast i32* %6 to i8*
  call void @llvm.lifetime.start.p0i8(i64 4, i8* nonnull %8) #4
  %9 = call i32 (i8*, ...) @__isoc99_scanf(i8* getelementptr inbounds ([3 x i8], [3 x i8]* @.str, i64 0, i64 0), i32* nonnull %3)
  call void @llvm.memset.p0i8.i64(i8* noundef nonnull align 16 dereferenceable(404) %5, i8 0, i64 404, i1 false)
  %10 = call i32 (i8*, ...) @__isoc99_scanf(i8* getelementptr inbounds ([3 x i8], [3 x i8]* @.str, i64 0, i64 0), i32* nonnull %6)
  %11 = load i32, i32* %6, align 4, !tbaa !5
  %12 = sext i32 %11 to i64
  %13 = getelementptr inbounds [101 x i32], [101 x i32]* %4, i64 0, i64 %12
  %14 = load i32, i32* %13, align 4, !tbaa !5
  %15 = add nsw i32 %14, 1
  store i32 %15, i32* %13, align 4, !tbaa !5
  %16 = call i32 (i8*, ...) @printf(i8* nonnull dereferenceable(1) getelementptr inbounds ([3 x i8], [3 x i8]* @.str, i64 0, i64 0), i32 %11)
  %17 = load i32, i32* %3, align 4, !tbaa !5
  %18 = icmp sgt i32 %17, 1
  br i1 %18, label %19, label %42

19:                                               ; preds = %2, %33
  %20 = phi i32 [ %38, %33 ], [ 0, %2 ]
  %21 = call i32 (i8*, ...) @__isoc99_scanf(i8* getelementptr inbounds ([3 x i8], [3 x i8]* @.str, i64 0, i64 0), i32* nonnull %6)
  %22 = load i32, i32* %6, align 4, !tbaa !5
  %23 = sext i32 %22 to i64
  %24 = getelementptr inbounds [101 x i32], [101 x i32]* %4, i64 0, i64 %23
  %25 = load i32, i32* %24, align 4, !tbaa !5
  %26 = icmp eq i32 %25, 0
  br i1 %26, label %27, label %33

27:                                               ; preds = %19
  %28 = call i32 (i8*, ...) @printf(i8* nonnull dereferenceable(1) getelementptr inbounds ([4 x i8], [4 x i8]* @.str.1, i64 0, i64 0), i32 %22)
  %29 = load i32, i32* %6, align 4, !tbaa !5
  %30 = sext i32 %29 to i64
  %31 = getelementptr inbounds [101 x i32], [101 x i32]* %4, i64 0, i64 %30
  %32 = load i32, i32* %31, align 4, !tbaa !5
  br label %33

33:                                               ; preds = %27, %19
  %34 = phi i64 [ %30, %27 ], [ %23, %19 ]
  %35 = phi i32 [ %32, %27 ], [ %25, %19 ]
  %36 = getelementptr inbounds [101 x i32], [101 x i32]* %4, i64 0, i64 %34
  %37 = add nsw i32 %35, 1
  store i32 %37, i32* %36, align 4, !tbaa !5
  %38 = add nuw nsw i32 %20, 1
  %39 = load i32, i32* %3, align 4, !tbaa !5
  %40 = add nsw i32 %39, -1
  %41 = icmp slt i32 %38, %40
  br i1 %41, label %19, label %42, !llvm.loop !9

42:                                               ; preds = %33, %2
  call void @llvm.lifetime.end.p0i8(i64 4, i8* nonnull %8) #4
  call void @llvm.lifetime.end.p0i8(i64 404, i8* nonnull %5) #4
  call void @llvm.lifetime.end.p0i8(i64 4, i8* nonnull %7) #4
  ret i32 0
}

; Function Attrs: argmemonly mustprogress nofree nosync nounwind willreturn
declare void @llvm.lifetime.start.p0i8(i64 immarg, i8* nocapture) #1

; Function Attrs: nofree nounwind
declare noundef i32 @__isoc99_scanf(i8* nocapture noundef readonly, ...) local_unnamed_addr #2

; Function Attrs: nofree nounwind
declare noundef i32 @printf(i8* nocapture noundef readonly, ...) local_unnamed_addr #2

; Function Attrs: argmemonly mustprogress nofree nosync nounwind willreturn
declare void @llvm.lifetime.end.p0i8(i64 immarg, i8* nocapture) #1

; Function Attrs: argmemonly nofree nounwind willreturn writeonly
declare void @llvm.memset.p0i8.i64(i8* nocapture writeonly, i8, i64, i1 immarg) #3


!llvm.module.flags = !{!0, !1, !2, !3}
!llvm.ident = !{!4}

!0 = !{i32 1, !"wchar_size", i32 4}
!1 = !{i32 7, !"PIC Level", i32 2}
!2 = !{i32 7, !"PIE Level", i32 2}
!3 = !{i32 7, !"uwtable", i32 1}
!4 = !{!"clang version 13.0.0"}
!5 = !{!6, !6, i64 0}
!6 = !{!"int", !7, i64 0}
!7 = !{!"omnipotent char", !8, i64 0}
!8 = !{!"Simple C/C++ TBAA"}
!9 = distinct !{!9, !10}
!10 = !{!"llvm.loop.mustprogress"}
